; Function Attrs: mustprogress uwtable
define ptr @unorm2_getNFCInstance_75(ptr nocapture noundef %pErrorCode) local_unnamed_addr #4 personality ptr @__gxx_personality_v0 {
entry:
  %0 = load i32, ptr %pErrorCode, align 4
  %cmp.i.i.i = icmp slt i32 %0, 1
  br i1 %cmp.i.i.i, label %if.end.i.i.i, label %_ZN6icu_7511Normalizer214getNFCInstanceER10UErrorCode.exit

if.end.i.i.i:                                     ; preds = %entry
  %1 = load atomic i32, ptr @_ZN6icu_75L11nfcInitOnceE acquire, align 4
  %cmp.not.i.i.i = icmp eq i32 %1, 2
  br i1 %cmp.not.i.i.i, label %if.else.i.i.i, label %land.lhs.true.i.i.i

land.lhs.true.i.i.i:                              ; preds = %if.end.i.i.i
  %call2.i.i.i = tail call noundef signext i8 @_ZN6icu_7520umtx_initImplPreInitERNS_9UInitOnceE(ptr noundef nonnull align 4 dereferenceable(8) @_ZN6icu_75L11nfcInitOnceE)
  %tobool3.not.i.i.i = icmp eq i8 %call2.i.i.i, 0
  br i1 %tobool3.not.i.i.i, label %if.else.i.i.i, label %if.then4.i.i.i

if.then4.i.i.i:                                   ; preds = %land.lhs.true.i.i.i
  %call.i.i.i = tail call noundef ptr @_ZN6icu_7513Norm2AllModes17createNFCInstanceER10UErrorCode(ptr noundef nonnull align 4 dereferenceable(4) %pErrorCode)
  store ptr %call.i.i.i, ptr @_ZN6icu_75L12nfcSingletonE, align 8
  tail call void @ucln_common_registerCleanup_75(i32 noundef 15, ptr noundef nonnull @_ZN6icu_75L24uprv_normalizer2_cleanupEv)
  %2 = load i32, ptr %pErrorCode, align 4
  store i32 %2, ptr getelementptr inbounds ({ { i32 }, i32 }, ptr @_ZN6icu_75L11nfcInitOnceE, i64 0, i32 1), align 4
  tail call void @_ZN6icu_7521umtx_initImplPostInitERNS_9UInitOnceE(ptr noundef nonnull align 4 dereferenceable(8) @_ZN6icu_75L11nfcInitOnceE)
  br label %_ZN6icu_7513umtx_initOnceERNS_9UInitOnceEPFvR10UErrorCodeES3_.exit.i.i

if.else.i.i.i:                                    ; preds = %land.lhs.true.i.i.i, %if.end.i.i.i
  %3 = load i32, ptr getelementptr inbounds ({ { i32 }, i32 }, ptr @_ZN6icu_75L11nfcInitOnceE, i64 0, i32 1), align 4
  %cmp.i9.i.i.i = icmp slt i32 %3, 1
  br i1 %cmp.i9.i.i.i, label %_ZN6icu_7513umtx_initOnceERNS_9UInitOnceEPFvR10UErrorCodeES3_.exit.i.i, label %if.then8.i.i.i

if.then8.i.i.i:                                   ; preds = %if.else.i.i.i
  store i32 %3, ptr %pErrorCode, align 4
  br label %_ZN6icu_7513umtx_initOnceERNS_9UInitOnceEPFvR10UErrorCodeES3_.exit.i.i

_ZN6icu_7513umtx_initOnceERNS_9UInitOnceEPFvR10UErrorCodeES3_.exit.i.i: ; preds = %if.then8.i.i.i, %if.else.i.i.i, %if.then4.i.i.i
  %4 = load ptr, ptr @_ZN6icu_75L12nfcSingletonE, align 8
  br label %_ZN6icu_7511Normalizer214getNFCInstanceER10UErrorCode.exit

_ZN6icu_7511Normalizer214getNFCInstanceER10UErrorCode.exit: ; preds = %entry, %_ZN6icu_7513umtx_initOnceERNS_9UInitOnceEPFvR10UErrorCodeES3_.exit.i.i
  %retval.0.i.i = phi ptr [ %4, %_ZN6icu_7513umtx_initOnceERNS_9UInitOnceEPFvR10UErrorCodeES3_.exit.i.i ], [ null, %entry ]
  %cmp.not.i = icmp eq ptr %retval.0.i.i, null
  %comp.i = getelementptr inbounds i8, ptr %retval.0.i.i, i64 8
  %cond.i = select i1 %cmp.not.i, ptr null, ptr %comp.i
  ret ptr %cond.i
}